; Function Attrs: mustprogress uwtable
define hidden void @_ZN21assert_test_fail_Test8TestBodyEv(ptr nocapture nonnull readnone align 8 %this) unnamed_addr #3 align 2 personality ptr @__gxx_personality_v0 {
entry:
  %agg.tmp.ensured = alloca %"class.testing::Matcher", align 8
  %agg.tmp.ensured8 = alloca %"class.testing::Message", align 8
  %call = tail call noundef zeroext i1 @_ZN7testing8internal10AlwaysTrueEv()
  %call2 = tail call noundef zeroext i1 @_ZN7testing8internal10AlwaysTrueEv()
  br i1 %call, label %if.end10, label %if.else4

if.else4:                                         ; preds = %entry
  br i1 %call2, label %if.else7, label %if.then6

if.then6:                                         ; preds = %if.else4
  call void @_ZN7testing8internal20MakeDeathTestMatcherB5cxx11EPKc(ptr nonnull sret(%"class.testing::Matcher") align 8 %agg.tmp.ensured, ptr noundef nonnull @.str.4)
  store ptr getelementptr inbounds ({ [6 x ptr] }, ptr @_ZTVN7testing8internal11MatcherBaseIRKNSt7__cxx1112basic_stringIcSt11char_traitsIcESaIcEEEEE, i64 0, i32 0, i64 2), ptr %agg.tmp.ensured, align 8
  %vtable_.i.i.i.i = getelementptr inbounds i8, ptr %agg.tmp.ensured, i64 8
  %0 = load ptr, ptr %vtable_.i.i.i.i, align 8
  %cmp.not.i.i.i.i = icmp eq ptr %0, null
  br i1 %cmp.not.i.i.i.i, label %if.end10, label %_ZNK7testing8internal11MatcherBaseIRKNSt7__cxx1112basic_stringIcSt11char_traitsIcESaIcEEEE8IsSharedEv.exit.i.i.i

_ZNK7testing8internal11MatcherBaseIRKNSt7__cxx1112basic_stringIcSt11char_traitsIcESaIcEEEE8IsSharedEv.exit.i.i.i: ; preds = %if.then6
  %shared_destroy.i.i.i.i = getelementptr inbounds i8, ptr %0, i64 24
  %1 = load ptr, ptr %shared_destroy.i.i.i.i, align 8
  %cmp3.i.not.i.i.i = icmp eq ptr %1, null
  br i1 %cmp3.i.not.i.i.i, label %if.end10, label %land.lhs.true.i.i.i

land.lhs.true.i.i.i:                              ; preds = %_ZNK7testing8internal11MatcherBaseIRKNSt7__cxx1112basic_stringIcSt11char_traitsIcESaIcEEEE8IsSharedEv.exit.i.i.i
  %buffer_.i.i.i = getelementptr inbounds i8, ptr %agg.tmp.ensured, i64 16
  %2 = load ptr, ptr %buffer_.i.i.i, align 8
  %3 = atomicrmw sub ptr %2, i32 1 acq_rel, align 4
  %cmp.i.i.i.i = icmp eq i32 %3, 1
  br i1 %cmp.i.i.i.i, label %if.then.i.i.i, label %if.end10

if.then.i.i.i:                                    ; preds = %land.lhs.true.i.i.i
  %4 = load ptr, ptr %vtable_.i.i.i.i, align 8
  %shared_destroy.i.i.i = getelementptr inbounds i8, ptr %4, i64 24
  %5 = load ptr, ptr %shared_destroy.i.i.i, align 8
  %6 = load ptr, ptr %buffer_.i.i.i, align 8
  invoke void %5(ptr noundef %6)
          to label %if.end10 unwind label %terminate.lpad.i.i

terminate.lpad.i.i:                               ; preds = %if.then.i.i.i
  %7 = landingpad { ptr, i32 }
          catch ptr null
  %8 = extractvalue { ptr, i32 } %7, 0
  call void @__clang_call_terminate(ptr %8) #15
  unreachable

if.else7:                                         ; preds = %if.else4
  call void @_ZN7testing7MessageC1Ev(ptr noundef nonnull align 8 dereferenceable(8) %agg.tmp.ensured8)
  %9 = load ptr, ptr %agg.tmp.ensured8, align 8
  %cmp.not.i.i = icmp eq ptr %9, null
  br i1 %cmp.not.i.i, label %if.end10, label %_ZNKSt14default_deleteINSt7__cxx1118basic_stringstreamIcSt11char_traitsIcESaIcEEEEclEPS5_.exit.i.i

_ZNKSt14default_deleteINSt7__cxx1118basic_stringstreamIcSt11char_traitsIcESaIcEEEEclEPS5_.exit.i.i: ; preds = %if.else7
  %vtable.i.i.i = load ptr, ptr %9, align 8
  %vfn.i.i.i = getelementptr inbounds i8, ptr %vtable.i.i.i, i64 8
  %10 = load ptr, ptr %vfn.i.i.i, align 8
  call void %10(ptr noundef nonnull align 8 dereferenceable(128) %9) #14
  br label %if.end10

if.end10:                                         ; preds = %_ZNKSt14default_deleteINSt7__cxx1118basic_stringstreamIcSt11char_traitsIcESaIcEEEEclEPS5_.exit.i.i, %if.else7, %entry, %if.then.i.i.i, %land.lhs.true.i.i.i, %_ZNK7testing8internal11MatcherBaseIRKNSt7__cxx1112basic_stringIcSt11char_traitsIcESaIcEEEE8IsSharedEv.exit.i.i.i, %if.then6
  ret void
}